; ModuleID = 'source-C-CXX/57/29.c'
source_filename = "source-C-CXX/57/29.c"
target datalayout = "e-m:e-p270:32:32-p271:32:32-p272:64:64-i64:64-f80:128-n8:16:32:64-S128"
target triple = "x86_64-pc-linux-gnu"

@.str = private unnamed_addr constant [3 x i8] c"%d\00", align 1
@.str.1 = private unnamed_addr constant [4 x i8] c"%d\0A\00", align 1

; Function Attrs: nounwind sspstrong uwtable
define dso_local i32 @main() local_unnamed_addr #0 {
  %1 = alloca i32, align 4
  %2 = bitcast i32* %1 to i8*
  call void @llvm.lifetime.start.p0i8(i64 4, i8* nonnull %2) #6
  %3 = call i32 (i8*, ...) @__isoc99_scanf(i8* getelementptr inbounds ([3 x i8], [3 x i8]* @.str, i64 0, i64 0), i32* nonnull %1)
  %4 = load i32, i32* %1, align 4, !tbaa !5
  %5 = sext i32 %4 to i64
  %6 = shl nsw i64 %5, 3
  %7 = call noalias align 16 i8* @malloc(i64 %6) #6
  %8 = bitcast i8* %7 to i8**
  %9 = call noalias align 16 dereferenceable_or_null(100) i8* @malloc(i64 100) #6
  store i8* %9, i8** %8, align 16, !tbaa !9
  %10 = call i32 (i8*, ...) bitcast (i32 (...)* @gets to i32 (i8*, ...)*)(i8* %9) #6
  %11 = load i32, i32* %1, align 4, !tbaa !5
  %12 = icmp sgt i32 %11, 0
  br i1 %12, label %15, label %63

13:                                               ; preds = %15
  %14 = icmp sgt i32 %21, 0
  br i1 %14, label %24, label %63

15:                                               ; preds = %0, %15
  %16 = phi i64 [ %20, %15 ], [ 0, %0 ]
  %17 = call noalias align 16 dereferenceable_or_null(100) i8* @malloc(i64 100) #6
  %18 = getelementptr inbounds i8*, i8** %8, i64 %16
  store i8* %17, i8** %18, align 8, !tbaa !9
  %19 = call i32 (i8*, ...) bitcast (i32 (...)* @gets to i32 (i8*, ...)*)(i8* %17) #6
  %20 = add nuw nsw i64 %16, 1
  %21 = load i32, i32* %1, align 4, !tbaa !5
  %22 = sext i32 %21 to i64
  %23 = icmp slt i64 %20, %22
  br i1 %23, label %15, label %13, !llvm.loop !11

24:                                               ; preds = %13, %56
  %25 = phi i64 [ %59, %56 ], [ 0, %13 ]
  %26 = phi i32 [ %57, %56 ], [ undef, %13 ]
  %27 = getelementptr inbounds i8*, i8** %8, i64 %25
  %28 = load i8*, i8** %27, align 8, !tbaa !9
  %29 = call i64 @strlen(i8* noundef nonnull dereferenceable(1) %28) #7
  %30 = icmp eq i64 %29, 0
  br i1 %30, label %56, label %31

31:                                               ; preds = %24, %53
  %32 = phi i64 [ %54, %53 ], [ 0, %24 ]
  %33 = getelementptr inbounds i8, i8* %28, i64 %32
  %34 = load i8, i8* %33, align 1, !tbaa !13
  %35 = icmp eq i64 %32, 0
  %36 = add i8 %34, -97
  %37 = icmp ugt i8 %36, 25
  br i1 %35, label %38, label %44

38:                                               ; preds = %31
  br i1 %37, label %39, label %53

39:                                               ; preds = %38
  %40 = add i8 %34, -65
  %41 = icmp ult i8 %40, 26
  %42 = icmp eq i8 %34, 95
  %43 = or i1 %42, %41
  br i1 %43, label %53, label %56

44:                                               ; preds = %31
  br i1 %37, label %45, label %53

45:                                               ; preds = %44
  %46 = add i8 %34, -65
  %47 = icmp ugt i8 %46, 25
  %48 = icmp ne i8 %34, 95
  %49 = and i1 %48, %47
  %50 = add i8 %34, -48
  %51 = icmp ugt i8 %50, 9
  %52 = and i1 %49, %51
  br i1 %52, label %56, label %53

53:                                               ; preds = %38, %39, %45, %44
  %54 = add nuw i64 %32, 1
  %55 = icmp eq i64 %54, %29
  br i1 %55, label %56, label %31, !llvm.loop !14

56:                                               ; preds = %53, %39, %45, %24
  %57 = phi i32 [ %26, %24 ], [ 0, %45 ], [ 0, %39 ], [ 1, %53 ]
  %58 = call i32 (i8*, ...) @printf(i8* nonnull dereferenceable(1) getelementptr inbounds ([4 x i8], [4 x i8]* @.str.1, i64 0, i64 0), i32 %57)
  %59 = add nuw nsw i64 %25, 1
  %60 = load i32, i32* %1, align 4, !tbaa !5
  %61 = sext i32 %60 to i64
  %62 = icmp slt i64 %59, %61
  br i1 %62, label %24, label %63, !llvm.loop !15

63:                                               ; preds = %56, %0, %13
  call void @llvm.lifetime.end.p0i8(i64 4, i8* nonnull %2) #6
  ret i32 0
}

; Function Attrs: argmemonly mustprogress nofree nosync nounwind willreturn
declare void @llvm.lifetime.start.p0i8(i64 immarg, i8* nocapture) #1

; Function Attrs: nofree nounwind
declare noundef i32 @__isoc99_scanf(i8* nocapture noundef readonly, ...) local_unnamed_addr #2

; Function Attrs: inaccessiblememonly mustprogress nofree nounwind willreturn
declare noalias noundef align 16 i8* @malloc(i64 noundef) local_unnamed_addr #3

declare i32 @gets(...) local_unnamed_addr #4

; Function Attrs: argmemonly mustprogress nofree nounwind readonly willreturn
declare i64 @strlen(i8* nocapture) local_unnamed_addr #5

; Function Attrs: nofree nounwind
declare noundef i32 @printf(i8* nocapture noundef readonly, ...) local_unnamed_addr #2

; Function Attrs: argmemonly mustprogress nofree nosync nounwind willreturn
declare void @llvm.lifetime.end.p0i8(i64 immarg, i8* nocapture) #1


!llvm.module.flags = !{!0, !1, !2, !3}
!llvm.ident = !{!4}

!0 = !{i32 1, !"wchar_size", i32 4}
!1 = !{i32 7, !"PIC Level", i32 2}
!2 = !{i32 7, !"PIE Level", i32 2}
!3 = !{i32 7, !"uwtable", i32 1}
!4 = !{!"clang version 13.0.0"}
!5 = !{!6, !6, i64 0}
!6 = !{!"int", !7, i64 0}
!7 = !{!"omnipotent char", !8, i64 0}
!8 = !{!"Simple C/C++ TBAA"}
!9 = !{!10, !10, i64 0}
!10 = !{!"any pointer", !7, i64 0}
!11 = distinct !{!11, !12}
!12 = !{!"llvm.loop.mustprogress"}
!13 = !{!7, !7, i64 0}
!14 = distinct !{!14, !12}
!15 = distinct !{!15, !12}
